target datalayout = "e-m:e-p270:32:32-p271:32:32-p272:64:64-i64:64-i128:128-f80:128-n8:16:32:64-S128"
target triple = "x86_64-pc-linux-gnu"

%"class.gmx::ComputeDebyeScattering" = type <{ ptr, double, double, i64, %"class.std::vector", %"class.std::vector", %"class.std::vector", %"class.std::vector", %"class.std::vector.0", i8, [7 x i8] }>
%"class.std::vector" = type { %"struct.std::_Vector_base" }
%"struct.std::_Vector_base" = type { %"struct.std::_Vector_base<double, std::allocator<double>>::_Vector_impl" }
%"struct.std::_Vector_base<double, std::allocator<double>>::_Vector_impl" = type { %"struct.std::_Vector_base<double, std::allocator<double>>::_Vector_impl_data" }
%"struct.std::_Vector_base<double, std::allocator<double>>::_Vector_impl_data" = type { ptr, ptr, ptr }
%"class.std::vector.0" = type { %"struct.std::_Vector_base.1" }
%"struct.std::_Vector_base.1" = type { %"struct.std::_Vector_base<std::vector<double>, std::allocator<std::vector<double>>>::_Vector_impl" }
%"struct.std::_Vector_base<std::vector<double>, std::allocator<std::vector<double>>>::_Vector_impl" = type { %"struct.std::_Vector_base<std::vector<double>, std::allocator<std::vector<double>>>::_Vector_impl_data" }
%"struct.std::_Vector_base<std::vector<double>, std::allocator<std::vector<double>>>::_Vector_impl_data" = type { ptr, ptr, ptr }
%"class.gmx::BasicVector" = type { [3 x float] }

; Function Attrs: mustprogress nounwind uwtable
define linkonce_odr noundef float @_ZNK3gmx11BasicVectorIfE3dotERKS1_(ptr noundef nonnull align 4 dereferenceable(12) %0, ptr noundef nonnull align 4 dereferenceable(12) %1) #2 comdat align 2 {
  %3 = alloca ptr, align 8
  %4 = alloca ptr, align 8
  store ptr %0, ptr %3, align 8
  store ptr %1, ptr %4, align 8
  %5 = load ptr, ptr %3, align 8
  %6 = getelementptr inbounds %"class.gmx::BasicVector", ptr %5, i32 0, i32 0
  %7 = getelementptr inbounds [3 x float], ptr %6, i64 0, i64 0
  %8 = load float, ptr %7, align 4
  %9 = load ptr, ptr %4, align 8
  %10 = call noundef float @_ZNK3gmx11BasicVectorIfEixEi(ptr noundef nonnull align 4 dereferenceable(12) %9, i32 noundef 0)
  %11 = getelementptr inbounds %"class.gmx::BasicVector", ptr %5, i32 0, i32 0
  %12 = getelementptr inbounds [3 x float], ptr %11, i64 0, i64 1
  %13 = load float, ptr %12, align 4
  %14 = load ptr, ptr %4, align 8
  %15 = call noundef float @_ZNK3gmx11BasicVectorIfEixEi(ptr noundef nonnull align 4 dereferenceable(12) %14, i32 noundef 1)
  %16 = fmul float %13, %15
  %17 = call float @llvm.fmuladd.f32(float %8, float %10, float %16)
  %18 = getelementptr inbounds %"class.gmx::BasicVector", ptr %5, i32 0, i32 0
  %19 = getelementptr inbounds [3 x float], ptr %18, i64 0, i64 2
  %20 = load float, ptr %19, align 4
  %21 = load ptr, ptr %4, align 8
  %22 = call noundef float @_ZNK3gmx11BasicVectorIfEixEi(ptr noundef nonnull align 4 dereferenceable(12) %21, i32 noundef 2)
  %23 = call float @llvm.fmuladd.f32(float %20, float %22, float %17)
  ret float %23
}

; Function Attrs: mustprogress nounwind uwtable
define linkonce_odr noundef float @_ZSt4sqrtf(float noundef %0) #2 comdat {
  %2 = alloca float, align 4
  store float %0, ptr %2, align 4
  %3 = load float, ptr %2, align 4
  %4 = call float @sqrtf(float noundef %3) #13
  ret float %4
}

; Function Attrs: mustprogress uwtable
define linkonce_odr noundef float @_ZNK3gmx11BasicVectorIfE5norm2Ev(ptr noundef nonnull align 4 dereferenceable(12) %0) #0 comdat align 2 {
  %2 = alloca ptr, align 8
  store ptr %0, ptr %2, align 8
  %3 = load ptr, ptr %2, align 8
  %4 = call noundef float @_ZNK3gmx11BasicVectorIfE3dotERKS1_(ptr noundef nonnull align 4 dereferenceable(12) %3, ptr noundef nonnull align 4 dereferenceable(12) %3)
  ret float %4
}

; Function Attrs: mustprogress nounwind uwtable
define linkonce_odr void @_ZN3gmx11BasicVectorIfEC2Efff(ptr noundef nonnull align 4 dereferenceable(12) %0, float noundef %1, float noundef %2, float noundef %3) unnamed_addr #2 comdat align 2 {
  %5 = alloca ptr, align 8
  %6 = alloca float, align 4
  %7 = alloca float, align 4
  %8 = alloca float, align 4
  store ptr %0, ptr %5, align 8
  store float %1, ptr %6, align 4
  store float %2, ptr %7, align 4
  store float %3, ptr %8, align 4
  %9 = load ptr, ptr %5, align 8
  %10 = getelementptr inbounds %"class.gmx::BasicVector", ptr %9, i32 0, i32 0
  %11 = getelementptr inbounds [3 x float], ptr %10, i64 0, i64 0
  %12 = load float, ptr %6, align 4
  store float %12, ptr %11, align 4
  %13 = getelementptr inbounds float, ptr %11, i64 1
  %14 = load float, ptr %7, align 4
  store float %14, ptr %13, align 4
  %15 = getelementptr inbounds float, ptr %13, i64 1
  %16 = load float, ptr %8, align 4
  store float %16, ptr %15, align 4
  ret void
}

; Function Attrs: mustprogress nounwind uwtable
define linkonce_odr noundef float @_ZNK3gmx11BasicVectorIfEixEi(ptr noundef nonnull align 4 dereferenceable(12) %0, i32 noundef %1) #2 comdat align 2 {
  %3 = alloca ptr, align 8
  %4 = alloca i32, align 4
  store ptr %0, ptr %3, align 8
  store i32 %1, ptr %4, align 4
  %5 = load ptr, ptr %3, align 8
  %6 = getelementptr inbounds %"class.gmx::BasicVector", ptr %5, i32 0, i32 0
  %7 = load i32, ptr %4, align 4
  %8 = sext i32 %7 to i64
  %9 = getelementptr inbounds [3 x float], ptr %6, i64 0, i64 %8
  %10 = load float, ptr %9, align 4
  ret float %10
}

; Function Attrs: mustprogress uwtable
define linkonce_odr noundef float @_ZNK3gmx11BasicVectorIfE4normEv(ptr noundef nonnull align 4 dereferenceable(12) %0) #0 comdat align 2 {
  %2 = alloca ptr, align 8
  store ptr %0, ptr %2, align 8
  %3 = load ptr, ptr %2, align 8
  %4 = call noundef float @_ZNK3gmx11BasicVectorIfE5norm2Ev(ptr noundef nonnull align 4 dereferenceable(12) %3)
  %5 = call noundef float @_ZSt4sqrtf(float noundef %4)
  ret float %5
}

; Function Attrs: mustprogress uwtable
define linkonce_odr { <2 x float>, float } @_ZNK3gmx11BasicVectorIfEplERKS1_(ptr noundef nonnull align 4 dereferenceable(12) %0, ptr noundef nonnull align 4 dereferenceable(12) %1) #0 comdat align 2 {
  %3 = alloca %"class.gmx::BasicVector", align 4
  %4 = alloca ptr, align 8
  %5 = alloca ptr, align 8
  %6 = alloca { <2 x float>, float }, align 8
  store ptr %0, ptr %4, align 8
  store ptr %1, ptr %5, align 8
  %7 = load ptr, ptr %4, align 8
  %8 = getelementptr inbounds %"class.gmx::BasicVector", ptr %7, i32 0, i32 0
  %9 = getelementptr inbounds [3 x float], ptr %8, i64 0, i64 0
  %10 = load float, ptr %9, align 4
  %11 = load ptr, ptr %5, align 8
  %12 = call noundef float @_ZNK3gmx11BasicVectorIfEixEi(ptr noundef nonnull align 4 dereferenceable(12) %11, i32 noundef 0)
  %13 = fadd float %10, %12
  %14 = getelementptr inbounds %"class.gmx::BasicVector", ptr %7, i32 0, i32 0
  %15 = getelementptr inbounds [3 x float], ptr %14, i64 0, i64 1
  %16 = load float, ptr %15, align 4
  %17 = load ptr, ptr %5, align 8
  %18 = call noundef float @_ZNK3gmx11BasicVectorIfEixEi(ptr noundef nonnull align 4 dereferenceable(12) %17, i32 noundef 1)
  %19 = fadd float %16, %18
  %20 = getelementptr inbounds %"class.gmx::BasicVector", ptr %7, i32 0, i32 0
  %21 = getelementptr inbounds [3 x float], ptr %20, i64 0, i64 2
  %22 = load float, ptr %21, align 4
  %23 = load ptr, ptr %5, align 8
  %24 = call noundef float @_ZNK3gmx11BasicVectorIfEixEi(ptr noundef nonnull align 4 dereferenceable(12) %23, i32 noundef 2)
  %25 = fadd float %22, %24
  call void @_ZN3gmx11BasicVectorIfEC2Efff(ptr noundef nonnull align 4 dereferenceable(12) %3, float noundef %13, float noundef %19, float noundef %25)
  %26 = getelementptr inbounds %"class.gmx::BasicVector", ptr %3, i32 0, i32 0
  call void @llvm.memcpy.p0.p0.i64(ptr align 8 %6, ptr align 4 %26, i64 12, i1 false)
  %27 = load { <2 x float>, float }, ptr %6, align 8
  ret { <2 x float>, float } %27
}

; Function Attrs: mustprogress nounwind uwtable
define linkonce_odr void @_ZN3gmx11BasicVectorIfEC2EPKf(ptr noundef nonnull align 4 dereferenceable(12) %0, ptr noundef %1) unnamed_addr #2 comdat align 2 {
  %3 = alloca ptr, align 8
  %4 = alloca ptr, align 8
  store ptr %0, ptr %3, align 8
  store ptr %1, ptr %4, align 8
  %5 = load ptr, ptr %3, align 8
  %6 = getelementptr inbounds %"class.gmx::BasicVector", ptr %5, i32 0, i32 0
  %7 = getelementptr inbounds [3 x float], ptr %6, i64 0, i64 0
  %8 = load ptr, ptr %4, align 8
  %9 = getelementptr inbounds float, ptr %8, i64 0
  %10 = load float, ptr %9, align 4
  store float %10, ptr %7, align 4
  %11 = getelementptr inbounds float, ptr %7, i64 1
  %12 = load ptr, ptr %4, align 8
  %13 = getelementptr inbounds float, ptr %12, i64 1
  %14 = load float, ptr %13, align 4
  store float %14, ptr %11, align 4
  %15 = getelementptr inbounds float, ptr %11, i64 1
  %16 = load ptr, ptr %4, align 8
  %17 = getelementptr inbounds float, ptr %16, i64 2
  %18 = load float, ptr %17, align 4
  store float %18, ptr %15, align 4
  ret void
}

; Function Attrs: mustprogress uwtable
define void @_ZN3gmx22ComputeDebyeScattering10getMaxDistEPA3_f(ptr noundef nonnull align 8 dereferenceable(153) %0, ptr noundef %1) #10 align 2 {
  %3 = alloca ptr, align 8
  %4 = alloca ptr, align 8
  %5 = alloca %"class.gmx::BasicVector", align 4
  %6 = alloca %"class.gmx::BasicVector", align 4
  %7 = alloca %"class.gmx::BasicVector", align 4
  %8 = alloca %"class.gmx::BasicVector", align 4
  %9 = alloca %"class.gmx::BasicVector", align 4
  %10 = alloca { <2 x float>, float }, align 8
  %11 = alloca { <2 x float>, float }, align 8
  store ptr %0, ptr %3, align 8
  store ptr %1, ptr %4, align 8
  %12 = load ptr, ptr %3, align 8
  %13 = load ptr, ptr %4, align 8
  %14 = getelementptr inbounds [3 x float], ptr %13, i64 0
  %15 = getelementptr inbounds [3 x float], ptr %14, i64 0, i64 0
  call void @_ZN3gmx11BasicVectorIfEC2EPKf(ptr noundef nonnull align 4 dereferenceable(12) %5, ptr noundef %15)
  %16 = load ptr, ptr %4, align 8
  %17 = getelementptr inbounds [3 x float], ptr %16, i64 1
  %18 = getelementptr inbounds [3 x float], ptr %17, i64 0, i64 0
  call void @_ZN3gmx11BasicVectorIfEC2EPKf(ptr noundef nonnull align 4 dereferenceable(12) %6, ptr noundef %18)
  %19 = load ptr, ptr %4, align 8
  %20 = getelementptr inbounds [3 x float], ptr %19, i64 2
  %21 = getelementptr inbounds [3 x float], ptr %20, i64 0, i64 0
  call void @_ZN3gmx11BasicVectorIfEC2EPKf(ptr noundef nonnull align 4 dereferenceable(12) %7, ptr noundef %21)
  %22 = call { <2 x float>, float } @_ZNK3gmx11BasicVectorIfEplERKS1_(ptr noundef nonnull align 4 dereferenceable(12) %5, ptr noundef nonnull align 4 dereferenceable(12) %6)
  %23 = getelementptr inbounds %"class.gmx::BasicVector", ptr %9, i32 0, i32 0
  store { <2 x float>, float } %22, ptr %10, align 8
  call void @llvm.memcpy.p0.p0.i64(ptr align 4 %23, ptr align 8 %10, i64 12, i1 false)
  %24 = call { <2 x float>, float } @_ZNK3gmx11BasicVectorIfEplERKS1_(ptr noundef nonnull align 4 dereferenceable(12) %9, ptr noundef nonnull align 4 dereferenceable(12) %7)
  %25 = getelementptr inbounds %"class.gmx::BasicVector", ptr %8, i32 0, i32 0
  store { <2 x float>, float } %24, ptr %11, align 8
  call void @llvm.memcpy.p0.p0.i64(ptr align 4 %25, ptr align 8 %11, i64 12, i1 false)
  %26 = call noundef float @_ZNK3gmx11BasicVectorIfE4normEv(ptr noundef nonnull align 4 dereferenceable(12) %8)
  %27 = fpext float %26 to double
  %28 = getelementptr inbounds %"class.gmx::ComputeDebyeScattering", ptr %12, i32 0, i32 2
  store double %27, ptr %28, align 8
  ret void
}