; Function Attrs: mustprogress nofree norecurse nosync nounwind willreturn memory(argmem: readwrite) uwtable
define void @_ZN3gmx22ComputeDebyeScattering10getMaxDistEPA3_f(ptr nocapture noundef nonnull writeonly align 8 dereferenceable(153) %0, ptr nocapture noundef readonly %1) local_unnamed_addr #8 align 2 {
  %3 = load float, ptr %1, align 4
  %4 = getelementptr inbounds i8, ptr %1, i64 4
  %5 = load float, ptr %4, align 4
  %6 = getelementptr inbounds i8, ptr %1, i64 8
  %7 = load float, ptr %6, align 4
  %8 = getelementptr inbounds i8, ptr %1, i64 12
  %9 = load float, ptr %8, align 4
  %10 = getelementptr inbounds i8, ptr %1, i64 16
  %11 = load float, ptr %10, align 4
  %12 = getelementptr inbounds i8, ptr %1, i64 20
  %13 = load float, ptr %12, align 4
  %14 = getelementptr inbounds i8, ptr %1, i64 24
  %15 = load float, ptr %14, align 4
  %16 = getelementptr inbounds i8, ptr %1, i64 28
  %17 = load float, ptr %16, align 4
  %18 = getelementptr inbounds i8, ptr %1, i64 32
  %19 = load float, ptr %18, align 4
  %20 = fadd float %3, %9
  %21 = fadd float %5, %11
  %22 = fadd float %7, %13
  %23 = fadd float %20, %15
  %24 = fadd float %21, %17
  %25 = fadd float %22, %19
  %26 = fmul float %24, %24
  %27 = tail call float @llvm.fmuladd.f32(float %23, float %23, float %26)
  %28 = tail call noundef float @llvm.fmuladd.f32(float %25, float %25, float %27)
  %sqrt.i = tail call noundef float @llvm.sqrt.f32(float %28)
  %29 = fpext float %sqrt.i to double
  %30 = getelementptr inbounds i8, ptr %0, i64 16
  store double %29, ptr %30, align 8
  ret void
}